target datalayout = "e-m:e-p270:32:32-p271:32:32-p272:64:64-i64:64-i128:128-f80:128-n8:16:32:64-S128"
target triple = "x86_64-pc-linux-gnu"

@.str.175 = private unnamed_addr constant [5 x i8] c".cvd\00", align 1
@.str.176 = private unnamed_addr constant [5 x i8] c".cld\00", align 1
@.str.177 = private unnamed_addr constant [5 x i8] c".cud\00", align 1

; Function Attrs: nounwind uwtable
define internal ptr @getdbname(ptr noundef %0, ptr noundef %1, i32 noundef %2) #0 {
  %4 = alloca ptr, align 8
  %5 = alloca ptr, align 8
  %6 = alloca ptr, align 8
  %7 = alloca i32, align 4
  %8 = alloca i32, align 4
  store ptr %0, ptr %5, align 8
  store ptr %1, ptr %6, align 8
  store i32 %2, ptr %7, align 4
  %9 = load ptr, ptr %5, align 8
  %10 = call i64 @strlen(ptr noundef %9) #14
  %11 = trunc i64 %10 to i32
  store i32 %11, ptr %8, align 4
  %12 = load ptr, ptr %5, align 8
  %13 = call i32 @cli_strbcasestr(ptr noundef %12, ptr noundef @.str.175)
  %14 = icmp ne i32 %13, 0
  br i1 %14, label %23, label %15

15:                                               ; preds = %3
  %16 = load ptr, ptr %5, align 8
  %17 = call i32 @cli_strbcasestr(ptr noundef %16, ptr noundef @.str.176)
  %18 = icmp ne i32 %17, 0
  br i1 %18, label %23, label %19

19:                                               ; preds = %15
  %20 = load ptr, ptr %5, align 8
  %21 = call i32 @cli_strbcasestr(ptr noundef %20, ptr noundef @.str.177)
  %22 = icmp ne i32 %21, 0
  br i1 %22, label %23, label %26

23:                                               ; preds = %19, %15, %3
  %24 = load i32, ptr %8, align 4
  %25 = sub nsw i32 %24, 4
  store i32 %25, ptr %8, align 4
  br label %26

26:                                               ; preds = %23, %19
  %27 = load ptr, ptr %6, align 8
  %28 = icmp ne ptr %27, null
  br i1 %28, label %29, label %59

29:                                               ; preds = %26
  %30 = load ptr, ptr %6, align 8
  %31 = load ptr, ptr %5, align 8
  %32 = load i32, ptr %7, align 4
  %33 = sub nsw i32 %32, 1
  %34 = load i32, ptr %8, align 4
  %35 = icmp slt i32 %33, %34
  br i1 %35, label %36, label %39

36:                                               ; preds = %29
  %37 = load i32, ptr %7, align 4
  %38 = sub nsw i32 %37, 1
  br label %41

39:                                               ; preds = %29
  %40 = load i32, ptr %8, align 4
  br label %41

41:                                               ; preds = %39, %36
  %42 = phi i32 [ %38, %36 ], [ %40, %39 ]
  %43 = sext i32 %42 to i64
  %44 = call ptr @strncpy(ptr noundef %30, ptr noundef %31, i64 noundef %43) #11
  %45 = load ptr, ptr %6, align 8
  %46 = load i32, ptr %7, align 4
  %47 = sub nsw i32 %46, 1
  %48 = load i32, ptr %8, align 4
  %49 = icmp slt i32 %47, %48
  br i1 %49, label %50, label %53

50:                                               ; preds = %41
  %51 = load i32, ptr %7, align 4
  %52 = sub nsw i32 %51, 1
  br label %55

53:                                               ; preds = %41
  %54 = load i32, ptr %8, align 4
  br label %55

55:                                               ; preds = %53, %50
  %56 = phi i32 [ %52, %50 ], [ %54, %53 ]
  %57 = sext i32 %56 to i64
  %58 = getelementptr inbounds i8, ptr %45, i64 %57
  store i8 0, ptr %58, align 1
  br label %90

59:                                               ; preds = %26
  %60 = load i32, ptr %8, align 4
  %61 = add nsw i32 %60, 1
  %62 = sext i32 %61 to i64
  %63 = call noalias ptr @malloc(i64 noundef %62) #13
  store ptr %63, ptr %6, align 8
  %64 = load ptr, ptr %6, align 8
  %65 = icmp ne ptr %64, null
  br i1 %65, label %67, label %66

66:                                               ; preds = %59
  store ptr null, ptr %4, align 8
  br label %92

67:                                               ; preds = %59
  %68 = load ptr, ptr %6, align 8
  %69 = load ptr, ptr %5, align 8
  %70 = load i32, ptr %8, align 4
  %71 = sub nsw i32 %70, 4
  %72 = sext i32 %71 to i64
  %73 = call ptr @strncpy(ptr noundef %68, ptr noundef %69, i64 noundef %72) #11
  %74 = load ptr, ptr %6, align 8
  %75 = load i32, ptr %7, align 4
  %76 = sub nsw i32 %75, 1
  %77 = load i32, ptr %8, align 4
  %78 = sub nsw i32 %77, 4
  %79 = icmp slt i32 %76, %78
  br i1 %79, label %80, label %83

80:                                               ; preds = %67
  %81 = load i32, ptr %7, align 4
  %82 = sub nsw i32 %81, 1
  br label %86

83:                                               ; preds = %67
  %84 = load i32, ptr %8, align 4
  %85 = sub nsw i32 %84, 4
  br label %86

86:                                               ; preds = %83, %80
  %87 = phi i32 [ %82, %80 ], [ %85, %83 ]
  %88 = sext i32 %87 to i64
  %89 = getelementptr inbounds i8, ptr %74, i64 %88
  store i8 0, ptr %89, align 1
  br label %90

90:                                               ; preds = %86, %55
  %91 = load ptr, ptr %6, align 8
  store ptr %91, ptr %4, align 8
  br label %92

92:                                               ; preds = %90, %66
  %93 = load ptr, ptr %4, align 8
  ret ptr %93
}