; Function Attrs: nounwind uwtable
define internal fastcc noundef ptr @getdbname(ptr noundef %0, ptr noundef %1) unnamed_addr #0 {
  %3 = tail call i64 @strlen(ptr noundef nonnull dereferenceable(1) %0) #31
  %4 = trunc i64 %3 to i32
  %5 = tail call i32 @cli_strbcasestr(ptr noundef %0, ptr noundef nonnull @.str.175) #25
  %.not = icmp eq i32 %5, 0
  br i1 %.not, label %6, label %10

6:                                                ; preds = %2
  %7 = tail call i32 @cli_strbcasestr(ptr noundef %0, ptr noundef nonnull @.str.176) #25
  %.not32 = icmp eq i32 %7, 0
  br i1 %.not32, label %8, label %10

8:                                                ; preds = %6
  %9 = tail call i32 @cli_strbcasestr(ptr noundef %0, ptr noundef nonnull @.str.177) #25
  %.not33 = icmp eq i32 %9, 0
  br i1 %.not33, label %12, label %10

10:                                               ; preds = %8, %6, %2
  %11 = add nsw i32 %4, -4
  br label %12

12:                                               ; preds = %10, %8
  %.0 = phi i32 [ %11, %10 ], [ %4, %8 ]
  %.not34 = icmp eq ptr %1, null
  br i1 %.not34, label %18, label %13

13:                                               ; preds = %12
  %14 = tail call i32 @llvm.smin.i32(i32 %.0, i32 31)
  %15 = sext i32 %14 to i64
  %16 = tail call ptr @strncpy(ptr noundef nonnull %1, ptr noundef %0, i64 noundef %15) #25
  %17 = getelementptr inbounds i8, ptr %1, i64 %15
  br label %.sink.split

18:                                               ; preds = %12
  %19 = add nsw i32 %.0, 1
  %20 = sext i32 %19 to i64
  %21 = tail call noalias ptr @malloc(i64 noundef %20) #30
  %.not35 = icmp eq ptr %21, null
  br i1 %.not35, label %29, label %22

22:                                               ; preds = %18
  %23 = add nsw i32 %.0, -4
  %24 = sext i32 %23 to i64
  %25 = tail call ptr @strncpy(ptr noundef nonnull %21, ptr noundef %0, i64 noundef %24) #25
  %26 = tail call i32 @llvm.smin.i32(i32 %23, i32 31)
  %27 = sext i32 %26 to i64
  %28 = getelementptr inbounds i8, ptr %21, i64 %27
  br label %.sink.split

.sink.split:                                      ; preds = %22, %13
  %.sink = phi ptr [ %17, %13 ], [ %28, %22 ]
  %.028.ph = phi ptr [ %1, %13 ], [ %21, %22 ]
  store i8 0, ptr %.sink, align 1
  br label %29

29:                                               ; preds = %.sink.split, %18
  %.028 = phi ptr [ null, %18 ], [ %.028.ph, %.sink.split ]
  ret ptr %.028
}